target datalayout = "e-m:e-p270:32:32-p271:32:32-p272:64:64-i64:64-i128:128-f80:128-n8:16:32:64-S128"
target triple = "x86_64-pc-linux-gnu"

; Function Attrs: nounwind uwtable
define internal i32 @default_execute(ptr noundef %0, ptr noundef %1, ptr noundef %2, ptr noundef %3, i32 noundef %4) #0 {
  %6 = alloca ptr, align 8
  %7 = alloca ptr, align 8
  %8 = alloca ptr, align 8
  %9 = alloca ptr, align 8
  %10 = alloca i32, align 4
  %11 = alloca i32, align 4
  %12 = alloca i32, align 4
  store ptr %0, ptr %6, align 8, !tbaa !4
  store ptr %1, ptr %7, align 8, !tbaa !72
  store ptr %2, ptr %8, align 8, !tbaa !72
  store ptr %3, ptr %9, align 8, !tbaa !11
  store i32 %4, ptr %10, align 4, !tbaa !19
  call void @llvm.lifetime.start.p0(i64 4, ptr %11) #11
  store i32 0, ptr %11, align 4, !tbaa !19
  br label %13

13:                                               ; preds = %33, %5
  %14 = load i32, ptr %11, align 4, !tbaa !19
  %15 = load i32, ptr %10, align 4, !tbaa !19
  %16 = icmp slt i32 %14, %15
  br i1 %16, label %17, label %36

17:                                               ; preds = %13
  call void @llvm.lifetime.start.p0(i64 4, ptr %12) #11
  %18 = load ptr, ptr %7, align 8, !tbaa !72
  %19 = load ptr, ptr %6, align 8, !tbaa !4
  %20 = load ptr, ptr %8, align 8, !tbaa !72
  %21 = load i32, ptr %11, align 4, !tbaa !19
  %22 = load i32, ptr %10, align 4, !tbaa !19
  %23 = call i32 %18(ptr noundef %19, ptr noundef %20, i32 noundef %21, i32 noundef %22)
  store i32 %23, ptr %12, align 4, !tbaa !19
  %24 = load ptr, ptr %9, align 8, !tbaa !11
  %25 = icmp ne ptr %24, null
  br i1 %25, label %26, label %32

26:                                               ; preds = %17
  %27 = load i32, ptr %12, align 4, !tbaa !19
  %28 = load ptr, ptr %9, align 8, !tbaa !11
  %29 = load i32, ptr %11, align 4, !tbaa !19
  %30 = sext i32 %29 to i64
  %31 = getelementptr inbounds i32, ptr %28, i64 %30
  store i32 %27, ptr %31, align 4, !tbaa !19
  br label %32

32:                                               ; preds = %26, %17
  call void @llvm.lifetime.end.p0(i64 4, ptr %12) #11
  br label %33

33:                                               ; preds = %32
  %34 = load i32, ptr %11, align 4, !tbaa !19
  %35 = add nsw i32 %34, 1
  store i32 %35, ptr %11, align 4, !tbaa !19
  br label %13, !llvm.loop !146

36:                                               ; preds = %13
  call void @llvm.lifetime.end.p0(i64 4, ptr %11) #11
  ret i32 0
}